target datalayout = "e-m:e-p270:32:32-p271:32:32-p272:64:64-i64:64-i128:128-f80:128-n8:16:32:64-S128"
target triple = "x86_64-pc-linux-gnu"

%struct.slurm_ops_t = type { ptr, ptr, ptr, ptr, ptr, ptr, ptr, ptr, ptr, ptr, ptr, ptr, ptr, ptr, ptr, ptr, ptr, ptr, ptr, ptr, ptr, ptr, ptr }

@plugin_inited = internal global i32 0, align 4
@ops = internal global %struct.slurm_ops_t zeroinitializer, align 8
@.str.39 = private unnamed_addr constant [9 x i8] c"cgroup.c\00", align 1
@__func__.cgroup_g_task_get_acct_data = private unnamed_addr constant [28 x i8] c"cgroup_g_task_get_acct_data\00", align 1

; Function Attrs: nounwind uwtable
define dso_local ptr @cgroup_g_task_get_acct_data(i32 noundef %0) #0 {
  %2 = alloca ptr, align 8
  %3 = alloca i32, align 4
  %4 = alloca ptr, align 8
  store i32 %0, ptr %3, align 4
  %5 = load i32, ptr @plugin_inited, align 4
  %6 = icmp eq i32 %5, 1
  br i1 %6, label %7, label %10

7:                                                ; preds = %1
  call void @llvm.lifetime.start.p0(i64 8, ptr %4) #9
  %8 = call ptr @slurm_xcalloc(i64 noundef 1, i64 noundef 48, i1 noundef zeroext true, i1 noundef zeroext false, ptr noundef @.str.39, i32 noundef 987, ptr noundef @__func__.cgroup_g_task_get_acct_data)
  store ptr %8, ptr %4, align 8
  %9 = load ptr, ptr %4, align 8
  store ptr %9, ptr %2, align 8
  call void @llvm.lifetime.end.p0(i64 8, ptr %4) #9
  br label %14

10:                                               ; preds = %1
  %11 = load ptr, ptr getelementptr inbounds nuw (%struct.slurm_ops_t, ptr @ops, i32 0, i32 17), align 8
  %12 = load i32, ptr %3, align 4
  %13 = call ptr %11(i32 noundef %12)
  store ptr %13, ptr %2, align 8
  br label %14

14:                                               ; preds = %10, %7
  %15 = load ptr, ptr %2, align 8
  ret ptr %15
}