; Function Attrs: nounwind uwtable
define dso_local ptr @cgroup_g_task_get_acct_data(i32 noundef %0) local_unnamed_addr #0 {
  %2 = load i32, ptr @plugin_inited, align 4
  %3 = icmp eq i32 %2, 1
  br i1 %3, label %4, label %6

4:                                                ; preds = %1
  %5 = tail call ptr @slurm_xcalloc(i64 noundef 1, i64 noundef 48, i1 noundef zeroext true, i1 noundef zeroext false, ptr noundef nonnull @.str.39, i32 noundef 987, ptr noundef nonnull @__func__.cgroup_g_task_get_acct_data) #12
  br label %9

6:                                                ; preds = %1
  %7 = load ptr, ptr getelementptr inbounds nuw (i8, ptr @ops, i64 136), align 8
  %8 = tail call ptr %7(i32 noundef %0) #12
  br label %9

9:                                                ; preds = %6, %4
  %.0 = phi ptr [ %5, %4 ], [ %8, %6 ]
  ret ptr %.0
}